target datalayout = "e-m:e-p270:32:32-p271:32:32-p272:64:64-i64:64-i128:128-f80:128-n8:16:32:64-S128"
target triple = "x86_64-pc-linux-gnu"

%struct.AVFilterContext = type { ptr, ptr, ptr, ptr, ptr, i32, ptr, ptr, i32, ptr, ptr, i32, i32, ptr, ptr, ptr, ptr, i32, ptr, i32, i32 }
%struct.AVFilterLink = type { ptr, ptr, ptr, ptr, i32, i32, i32, i32, %struct.AVRational, i32, i32, i32, %struct.AVChannelLayout, %struct.AVRational, ptr, i32, %struct.AVFilterFormatsConfig, %struct.AVFilterFormatsConfig }
%struct.AVChannelLayout = type { i32, i32, %union.anon.1, ptr }
%union.anon.1 = type { i64 }
%struct.AVRational = type { i32, i32 }
%struct.AVFilterFormatsConfig = type { ptr, ptr, ptr, ptr, ptr }
%struct.ThreadData = type { ptr, ptr }

; Function Attrs: inlinehint nounwind uwtable
define internal void @ff_outlink_set_status(ptr noundef %0, i32 noundef %1, i64 noundef %2) #6 {
  %4 = alloca ptr, align 8
  %5 = alloca i32, align 4
  %6 = alloca i64, align 8
  store ptr %0, ptr %4, align 8, !tbaa !48
  store i32 %1, ptr %5, align 4, !tbaa !29
  store i64 %2, ptr %6, align 8, !tbaa !54
  %7 = load ptr, ptr %4, align 8, !tbaa !48
  %8 = load i32, ptr %5, align 4, !tbaa !29
  %9 = load i64, ptr %6, align 8, !tbaa !54
  call void @ff_avfilter_link_set_in_status(ptr noundef %7, i32 noundef %8, i64 noundef %9)
  ret void
}

; Function Attrs: nounwind uwtable
define internal i32 @filter_frame(ptr noundef %0, ptr noundef %1) #1 {
  %3 = alloca i32, align 4
  %4 = alloca ptr, align 8
  %5 = alloca ptr, align 8
  %6 = alloca ptr, align 8
  %7 = alloca ptr, align 8
  %8 = alloca ptr, align 8
  %9 = alloca %struct.ThreadData, align 8
  %10 = alloca i32, align 4
  store ptr %0, ptr %4, align 8, !tbaa !48
  store ptr %1, ptr %5, align 8, !tbaa !52
  call void @llvm.lifetime.start.p0(i64 8, ptr %6) #11
  %11 = load ptr, ptr %4, align 8, !tbaa !48
  %12 = getelementptr inbounds nuw %struct.AVFilterLink, ptr %11, i32 0, i32 2
  %13 = load ptr, ptr %12, align 8, !tbaa !56
  store ptr %13, ptr %6, align 8, !tbaa !4
  call void @llvm.lifetime.start.p0(i64 8, ptr %7) #11
  %14 = load ptr, ptr %6, align 8, !tbaa !4
  %15 = getelementptr inbounds nuw %struct.AVFilterContext, ptr %14, i32 0, i32 7
  %16 = load ptr, ptr %15, align 8, !tbaa !51
  %17 = getelementptr inbounds ptr, ptr %16, i64 0
  %18 = load ptr, ptr %17, align 8, !tbaa !48
  store ptr %18, ptr %7, align 8, !tbaa !48
  call void @llvm.lifetime.start.p0(i64 8, ptr %8) #11
  store ptr null, ptr %8, align 8, !tbaa !52
  call void @llvm.lifetime.start.p0(i64 16, ptr %9) #11
  %19 = load ptr, ptr %7, align 8, !tbaa !48
  %20 = call ptr @ff_get_audio_buffer(ptr noundef %19, i32 noundef 480)
  store ptr %20, ptr %8, align 8, !tbaa !52
  %21 = load ptr, ptr %8, align 8, !tbaa !52
  %22 = icmp ne ptr %21, null
  br i1 %22, label %24, label %23

23:                                               ; preds = %2
  call void @av_frame_free(ptr noundef %5)
  store i32 -12, ptr %3, align 4
  store i32 1, ptr %10, align 4
  br label %54

24:                                               ; preds = %2
  %25 = load ptr, ptr %8, align 8, !tbaa !52
  %26 = load ptr, ptr %5, align 8, !tbaa !52
  %27 = call i32 @av_frame_copy_props(ptr noundef %25, ptr noundef %26)
  %28 = load ptr, ptr %5, align 8, !tbaa !52
  %29 = getelementptr inbounds nuw %struct.ThreadData, ptr %9, i32 0, i32 0
  store ptr %28, ptr %29, align 8, !tbaa !161
  %30 = load ptr, ptr %8, align 8, !tbaa !52
  %31 = getelementptr inbounds nuw %struct.ThreadData, ptr %9, i32 0, i32 1
  store ptr %30, ptr %31, align 8, !tbaa !163
  %32 = load ptr, ptr %6, align 8, !tbaa !4
  %33 = load ptr, ptr %7, align 8, !tbaa !48
  %34 = getelementptr inbounds nuw %struct.AVFilterLink, ptr %33, i32 0, i32 12
  %35 = getelementptr inbounds nuw %struct.AVChannelLayout, ptr %34, i32 0, i32 1
  %36 = load i32, ptr %35, align 4, !tbaa !64
  %37 = load ptr, ptr %6, align 8, !tbaa !4
  %38 = call i32 @ff_filter_get_nb_threads(ptr noundef %37) #12
  %39 = icmp sgt i32 %36, %38
  br i1 %39, label %40, label %43

40:                                               ; preds = %24
  %41 = load ptr, ptr %6, align 8, !tbaa !4
  %42 = call i32 @ff_filter_get_nb_threads(ptr noundef %41) #12
  br label %48

43:                                               ; preds = %24
  %44 = load ptr, ptr %7, align 8, !tbaa !48
  %45 = getelementptr inbounds nuw %struct.AVFilterLink, ptr %44, i32 0, i32 12
  %46 = getelementptr inbounds nuw %struct.AVChannelLayout, ptr %45, i32 0, i32 1
  %47 = load i32, ptr %46, align 4, !tbaa !64
  br label %48

48:                                               ; preds = %43, %40
  %49 = phi i32 [ %42, %40 ], [ %47, %43 ]
  %50 = call i32 @ff_filter_execute(ptr noundef %32, ptr noundef @rnnoise_channels, ptr noundef %9, ptr noundef null, i32 noundef %49)
  call void @av_frame_free(ptr noundef %5)
  %51 = load ptr, ptr %7, align 8, !tbaa !48
  %52 = load ptr, ptr %8, align 8, !tbaa !52
  %53 = call i32 @ff_filter_frame(ptr noundef %51, ptr noundef %52)
  store i32 %53, ptr %3, align 4
  store i32 1, ptr %10, align 4
  br label %54

54:                                               ; preds = %48, %23
  call void @llvm.lifetime.end.p0(i64 16, ptr %9) #11
  call void @llvm.lifetime.end.p0(i64 8, ptr %8) #11
  call void @llvm.lifetime.end.p0(i64 8, ptr %7) #11
  call void @llvm.lifetime.end.p0(i64 8, ptr %6) #11
  %55 = load i32, ptr %3, align 4
  ret i32 %55
}

; Function Attrs: nounwind uwtable
define internal i32 @activate(ptr noundef %0) #1 {
  %2 = alloca i32, align 4
  %3 = alloca ptr, align 8
  %4 = alloca ptr, align 8
  %5 = alloca ptr, align 8
  %6 = alloca ptr, align 8
  %7 = alloca i32, align 4
  %8 = alloca i32, align 4
  %9 = alloca i32, align 4
  %10 = alloca i32, align 4
  %11 = alloca i64, align 8
  store ptr %0, ptr %3, align 8, !tbaa !4
  call void @llvm.lifetime.start.p0(i64 8, ptr %4) #11
  %12 = load ptr, ptr %3, align 8, !tbaa !4
  %13 = getelementptr inbounds nuw %struct.AVFilterContext, ptr %12, i32 0, i32 4
  %14 = load ptr, ptr %13, align 8, !tbaa !47
  %15 = getelementptr inbounds ptr, ptr %14, i64 0
  %16 = load ptr, ptr %15, align 8, !tbaa !48
  store ptr %16, ptr %4, align 8, !tbaa !48
  call void @llvm.lifetime.start.p0(i64 8, ptr %5) #11
  %17 = load ptr, ptr %3, align 8, !tbaa !4
  %18 = getelementptr inbounds nuw %struct.AVFilterContext, ptr %17, i32 0, i32 7
  %19 = load ptr, ptr %18, align 8, !tbaa !51
  %20 = getelementptr inbounds ptr, ptr %19, i64 0
  %21 = load ptr, ptr %20, align 8, !tbaa !48
  store ptr %21, ptr %5, align 8, !tbaa !48
  call void @llvm.lifetime.start.p0(i64 8, ptr %6) #11
  store ptr null, ptr %6, align 8, !tbaa !52
  call void @llvm.lifetime.start.p0(i64 4, ptr %7) #11
  br label %22

22:                                               ; preds = %1
  call void @llvm.lifetime.start.p0(i64 4, ptr %8) #11
  %23 = load ptr, ptr %5, align 8, !tbaa !48
  %24 = call i32 @ff_outlink_get_status(ptr noundef %23)
  store i32 %24, ptr %8, align 4, !tbaa !29
  %25 = load i32, ptr %8, align 4, !tbaa !29
  %26 = icmp ne i32 %25, 0
  br i1 %26, label %27, label %30

27:                                               ; preds = %22
  %28 = load ptr, ptr %4, align 8, !tbaa !48
  %29 = load i32, ptr %8, align 4, !tbaa !29
  call void @ff_inlink_set_status(ptr noundef %28, i32 noundef %29)
  store i32 0, ptr %2, align 4
  store i32 1, ptr %9, align 4
  br label %31

30:                                               ; preds = %22
  store i32 0, ptr %9, align 4
  br label %31

31:                                               ; preds = %30, %27
  call void @llvm.lifetime.end.p0(i64 4, ptr %8) #11
  %32 = load i32, ptr %9, align 4
  switch i32 %32, label %73 [
    i32 0, label %33
  ]

33:                                               ; preds = %31
  br label %34

34:                                               ; preds = %33
  br label %35

35:                                               ; preds = %34
  %36 = load ptr, ptr %4, align 8, !tbaa !48
  %37 = call i32 @ff_inlink_consume_samples(ptr noundef %36, i32 noundef 480, i32 noundef 480, ptr noundef %6)
  store i32 %37, ptr %7, align 4, !tbaa !29
  %38 = load i32, ptr %7, align 4, !tbaa !29
  %39 = icmp slt i32 %38, 0
  br i1 %39, label %40, label %42

40:                                               ; preds = %35
  %41 = load i32, ptr %7, align 4, !tbaa !29
  store i32 %41, ptr %2, align 4
  store i32 1, ptr %9, align 4
  br label %73

42:                                               ; preds = %35
  %43 = load i32, ptr %7, align 4, !tbaa !29
  %44 = icmp sgt i32 %43, 0
  br i1 %44, label %45, label %49

45:                                               ; preds = %42
  %46 = load ptr, ptr %4, align 8, !tbaa !48
  %47 = load ptr, ptr %6, align 8, !tbaa !52
  %48 = call i32 @filter_frame(ptr noundef %46, ptr noundef %47)
  store i32 %48, ptr %2, align 4
  store i32 1, ptr %9, align 4
  br label %73

49:                                               ; preds = %42
  br label %50

50:                                               ; preds = %49
  call void @llvm.lifetime.start.p0(i64 4, ptr %10) #11
  call void @llvm.lifetime.start.p0(i64 8, ptr %11) #11
  %51 = load ptr, ptr %4, align 8, !tbaa !48
  %52 = call i32 @ff_inlink_acknowledge_status(ptr noundef %51, ptr noundef %10, ptr noundef %11)
  %53 = icmp ne i32 %52, 0
  br i1 %53, label %54, label %58

54:                                               ; preds = %50
  %55 = load ptr, ptr %5, align 8, !tbaa !48
  %56 = load i32, ptr %10, align 4, !tbaa !29
  %57 = load i64, ptr %11, align 8, !tbaa !54
  call void @ff_outlink_set_status(ptr noundef %55, i32 noundef %56, i64 noundef %57)
  store i32 0, ptr %2, align 4
  store i32 1, ptr %9, align 4
  br label %59

58:                                               ; preds = %50
  store i32 0, ptr %9, align 4
  br label %59

59:                                               ; preds = %58, %54
  call void @llvm.lifetime.end.p0(i64 8, ptr %11) #11
  call void @llvm.lifetime.end.p0(i64 4, ptr %10) #11
  %60 = load i32, ptr %9, align 4
  switch i32 %60, label %73 [
    i32 0, label %61
  ]

61:                                               ; preds = %59
  br label %62

62:                                               ; preds = %61
  br label %63

63:                                               ; preds = %62
  br label %64

64:                                               ; preds = %63
  %65 = load ptr, ptr %5, align 8, !tbaa !48
  %66 = call i32 @ff_outlink_frame_wanted(ptr noundef %65)
  %67 = icmp ne i32 %66, 0
  br i1 %67, label %68, label %70

68:                                               ; preds = %64
  %69 = load ptr, ptr %4, align 8, !tbaa !48
  call void @ff_inlink_request_frame(ptr noundef %69)
  store i32 0, ptr %2, align 4
  store i32 1, ptr %9, align 4
  br label %73

70:                                               ; preds = %64
  br label %71

71:                                               ; preds = %70
  br label %72

72:                                               ; preds = %71
  store i32 -1497649742, ptr %2, align 4
  store i32 1, ptr %9, align 4
  br label %73

73:                                               ; preds = %72, %68, %59, %45, %40, %31
  call void @llvm.lifetime.end.p0(i64 4, ptr %7) #11
  call void @llvm.lifetime.end.p0(i64 8, ptr %6) #11
  call void @llvm.lifetime.end.p0(i64 8, ptr %5) #11
  call void @llvm.lifetime.end.p0(i64 8, ptr %4) #11
  %74 = load i32, ptr %2, align 4
  ret i32 %74
}