; Function Attrs: nounwind uwtable
define internal i32 @activate(ptr noundef readonly captures(none) %0) #1 {
  %2 = alloca ptr, align 8
  %3 = alloca %struct.ThreadData, align 8
  %4 = alloca ptr, align 8
  %5 = alloca i32, align 4
  %6 = alloca i64, align 8
  %7 = getelementptr inbounds nuw i8, ptr %0, i64 32
  %8 = load ptr, ptr %7, align 8, !tbaa !36
  %9 = load ptr, ptr %8, align 8, !tbaa !37
  %10 = getelementptr inbounds nuw i8, ptr %0, i64 56
  %11 = load ptr, ptr %10, align 8, !tbaa !44
  %12 = load ptr, ptr %11, align 8, !tbaa !37
  call void @llvm.lifetime.start.p0(i64 8, ptr nonnull %4) #11
  store ptr null, ptr %4, align 8, !tbaa !45
  %13 = tail call i32 @ff_outlink_get_status(ptr noundef %12) #11
  %.not = icmp eq i32 %13, 0
  br i1 %.not, label %.critedge, label %14

14:                                               ; preds = %1
  tail call void @ff_inlink_set_status(ptr noundef %9, i32 noundef %13) #11
  br label %41

.critedge:                                        ; preds = %1
  %15 = call i32 @ff_inlink_consume_samples(ptr noundef %9, i32 noundef 480, i32 noundef 480, ptr noundef nonnull %4) #11
  %16 = icmp slt i32 %15, 0
  br i1 %16, label %41, label %17

17:                                               ; preds = %.critedge
  %.not23 = icmp eq i32 %15, 0
  br i1 %.not23, label %34, label %18

18:                                               ; preds = %17
  %19 = load ptr, ptr %4, align 8, !tbaa !45
  %20 = getelementptr i8, ptr %9, i64 16
  %.val = load ptr, ptr %20, align 8, !tbaa !47
  call void @llvm.lifetime.start.p0(i64 8, ptr nonnull %2)
  store ptr %19, ptr %2, align 8, !tbaa !45
  %21 = getelementptr inbounds nuw i8, ptr %.val, i64 56
  %22 = load ptr, ptr %21, align 8, !tbaa !44
  %23 = load ptr, ptr %22, align 8, !tbaa !37
  call void @llvm.lifetime.start.p0(i64 16, ptr nonnull %3) #11
  %24 = call ptr @ff_get_audio_buffer(ptr noundef %23, i32 noundef 480) #11
  %.not.i = icmp eq ptr %24, null
  br i1 %.not.i, label %25, label %26

25:                                               ; preds = %18
  call void @av_frame_free(ptr noundef nonnull %2) #11
  br label %filter_frame.exit

26:                                               ; preds = %18
  %27 = call i32 @av_frame_copy_props(ptr noundef nonnull %24, ptr noundef %19) #11
  store ptr %19, ptr %3, align 8, !tbaa !56
  %28 = getelementptr inbounds nuw i8, ptr %3, i64 8
  store ptr %24, ptr %28, align 8, !tbaa !58
  %29 = getelementptr inbounds nuw i8, ptr %23, i64 76
  %30 = load i32, ptr %29, align 4, !tbaa !59
  %31 = call i32 @ff_filter_get_nb_threads(ptr noundef nonnull %.val) #12
  %..i = call i32 @llvm.smin.i32(i32 %30, i32 %31)
  %32 = call i32 @ff_filter_execute(ptr noundef nonnull %.val, ptr noundef nonnull @rnnoise_channels, ptr noundef nonnull %3, ptr noundef null, i32 noundef %..i) #11
  call void @av_frame_free(ptr noundef nonnull %2) #11
  %33 = call i32 @ff_filter_frame(ptr noundef %23, ptr noundef nonnull %24) #11
  br label %filter_frame.exit

filter_frame.exit:                                ; preds = %25, %26
  %.0.i = phi i32 [ %33, %26 ], [ -12, %25 ]
  call void @llvm.lifetime.end.p0(i64 16, ptr nonnull %3) #11
  call void @llvm.lifetime.end.p0(i64 8, ptr nonnull %2)
  br label %41

34:                                               ; preds = %17
  call void @llvm.lifetime.start.p0(i64 4, ptr nonnull %5) #11
  call void @llvm.lifetime.start.p0(i64 8, ptr nonnull %6) #11
  %35 = call i32 @ff_inlink_acknowledge_status(ptr noundef %9, ptr noundef nonnull %5, ptr noundef nonnull %6) #11
  %.not24 = icmp eq i32 %35, 0
  br i1 %.not24, label %.critedge27, label %36

36:                                               ; preds = %34
  %37 = load i32, ptr %5, align 4, !tbaa !60
  %38 = load i64, ptr %6, align 8, !tbaa !61
  call void @ff_avfilter_link_set_in_status(ptr noundef %12, i32 noundef %37, i64 noundef %38) #11
  call void @llvm.lifetime.end.p0(i64 8, ptr nonnull %6) #11
  call void @llvm.lifetime.end.p0(i64 4, ptr nonnull %5) #11
  br label %41

.critedge27:                                      ; preds = %34
  call void @llvm.lifetime.end.p0(i64 8, ptr nonnull %6) #11
  call void @llvm.lifetime.end.p0(i64 4, ptr nonnull %5) #11
  %39 = call i32 @ff_outlink_frame_wanted(ptr noundef %12) #11
  %.not25 = icmp eq i32 %39, 0
  br i1 %.not25, label %41, label %40

40:                                               ; preds = %.critedge27
  call void @ff_inlink_request_frame(ptr noundef %9) #11
  br label %41

41:                                               ; preds = %36, %14, %.critedge27, %.critedge, %40, %filter_frame.exit
  %.119 = phi i32 [ %.0.i, %filter_frame.exit ], [ 0, %40 ], [ 0, %36 ], [ 0, %14 ], [ %15, %.critedge ], [ -1497649742, %.critedge27 ]
  call void @llvm.lifetime.end.p0(i64 8, ptr nonnull %4) #11
  ret i32 %.119
}